target datalayout = "e-m:e-p270:32:32-p271:32:32-p272:64:64-i64:64-i128:128-f80:128-n8:16:32:64-S128"
target triple = "x86_64-pc-linux-gnu"

%"class.arrow::internal::Bitmap" = type { ptr, ptr, i64, i64 }

; Function Attrs: mustprogress uwtable
define void @_ZN5arrow8internal6Bitmap16CopyFromInvertedERKS1_(ptr noundef nonnull align 8 dereferenceable(32) %0, ptr noundef nonnull align 8 dereferenceable(32) %1) #1 align 2 {
  %3 = alloca ptr, align 8
  %4 = alloca ptr, align 8
  store ptr %0, ptr %3, align 8, !tbaa !53
  store ptr %1, ptr %4, align 8, !tbaa !53
  %5 = load ptr, ptr %3, align 8
  %6 = load ptr, ptr %4, align 8, !tbaa !53
  %7 = getelementptr inbounds nuw %"class.arrow::internal::Bitmap", ptr %6, i32 0, i32 0
  %8 = load ptr, ptr %7, align 8, !tbaa !64
  %9 = load ptr, ptr %4, align 8, !tbaa !53
  %10 = getelementptr inbounds nuw %"class.arrow::internal::Bitmap", ptr %9, i32 0, i32 2
  %11 = load i64, ptr %10, align 8, !tbaa !65
  %12 = load ptr, ptr %4, align 8, !tbaa !53
  %13 = getelementptr inbounds nuw %"class.arrow::internal::Bitmap", ptr %12, i32 0, i32 3
  %14 = load i64, ptr %13, align 8, !tbaa !55
  %15 = getelementptr inbounds nuw %"class.arrow::internal::Bitmap", ptr %5, i32 0, i32 1
  %16 = load ptr, ptr %15, align 8, !tbaa !86
  %17 = getelementptr inbounds nuw %"class.arrow::internal::Bitmap", ptr %5, i32 0, i32 2
  %18 = load i64, ptr %17, align 8, !tbaa !65
  call void @_ZN5arrow8internal12InvertBitmapEPKhllPhl(ptr noundef %8, i64 noundef %11, i64 noundef %14, ptr noundef %16, i64 noundef %18)
  ret void
}